; Function Attrs: mustprogress uwtable
define void @_ZN30MLRenderingFaceSelectionActionC2EP7QObject(ptr noundef nonnull align 8 dereferenceable(16) %0, ptr noundef %1) unnamed_addr #9 align 2 personality ptr @__gxx_personality_v0 {
  %3 = alloca %class.QString, align 8
  tail call void @_ZN17MLRenderingActionC2EiP7QObject(ptr noundef nonnull align 8 dereferenceable(16) %0, i32 noundef -1, ptr noundef %1)
  store ptr getelementptr inbounds ({ [19 x ptr] }, ptr @_ZTV30MLRenderingFaceSelectionAction, i64 0, i32 0, i64 2), ptr %0, align 8
  %4 = invoke noundef ptr @_ZN7QString16fromAscii_helperEPKci(ptr noundef nonnull @.str.38, i32 noundef 14)
          to label %5 unwind label %11

5:                                                ; preds = %2
  store ptr %4, ptr %3, align 8
  invoke void @_ZN7QAction7setTextERK7QString(ptr noundef nonnull align 8 dereferenceable(16) %0, ptr noundef nonnull align 8 dereferenceable(8) %3)
          to label %6 unwind label %13

6:                                                ; preds = %5
  %7 = load ptr, ptr %3, align 8
  %8 = load atomic i32, ptr %7 monotonic, align 4
  switch i32 %8, label %_ZN9QtPrivate8RefCount5derefEv.exit.i [
    i32 0, label %_ZN9QtPrivate8RefCount5derefEv.exit.thread2.i
    i32 -1, label %_ZN7QStringD2Ev.exit
  ]

_ZN9QtPrivate8RefCount5derefEv.exit.i:            ; preds = %6
  %9 = atomicrmw sub ptr %7, i32 1 seq_cst, align 4
  %.not.i = icmp eq i32 %9, 1
  br i1 %.not.i, label %_ZN9QtPrivate8RefCount5derefEv.exit._ZN9QtPrivate8RefCount5derefEv.exit.thread2_crit_edge.i, label %_ZN7QStringD2Ev.exit

_ZN9QtPrivate8RefCount5derefEv.exit._ZN9QtPrivate8RefCount5derefEv.exit.thread2_crit_edge.i: ; preds = %_ZN9QtPrivate8RefCount5derefEv.exit.i
  %.pre.i = load ptr, ptr %3, align 8
  br label %_ZN9QtPrivate8RefCount5derefEv.exit.thread2.i

_ZN9QtPrivate8RefCount5derefEv.exit.thread2.i:    ; preds = %_ZN9QtPrivate8RefCount5derefEv.exit._ZN9QtPrivate8RefCount5derefEv.exit.thread2_crit_edge.i, %6
  %10 = phi ptr [ %.pre.i, %_ZN9QtPrivate8RefCount5derefEv.exit._ZN9QtPrivate8RefCount5derefEv.exit.thread2_crit_edge.i ], [ %7, %6 ]
  call void @_ZN10QArrayData10deallocateEPS_mm(ptr noundef %10, i64 noundef 2, i64 noundef 8) #21
  br label %_ZN7QStringD2Ev.exit

_ZN7QStringD2Ev.exit:                             ; preds = %6, %_ZN9QtPrivate8RefCount5derefEv.exit.i, %_ZN9QtPrivate8RefCount5derefEv.exit.thread2.i
  ret void

11:                                               ; preds = %2
  %12 = landingpad { ptr, i32 }
          cleanup
  br label %15

13:                                               ; preds = %5
  %14 = landingpad { ptr, i32 }
          cleanup
  call void @_ZN7QStringD2Ev(ptr noundef nonnull align 8 dereferenceable(8) %3) #21
  br label %15

15:                                               ; preds = %13, %11
  %.pn = phi { ptr, i32 } [ %14, %13 ], [ %12, %11 ]
  call void @_ZN7QActionD2Ev(ptr noundef nonnull align 8 dereferenceable(16) %0) #21
  resume { ptr, i32 } %.pn
}